target datalayout = "e-m:e-p270:32:32-p271:32:32-p272:64:64-i64:64-i128:128-f80:128-n8:16:32:64-S128"
target triple = "x86_64-pc-linux-gnu"

; Function Attrs: nounwind uwtable
define internal void @horizontal_compose_dd97i_8bit(ptr noundef %0, ptr noundef %1, i32 noundef %2) #0 {
  %4 = alloca ptr, align 8
  %5 = alloca ptr, align 8
  %6 = alloca i32, align 4
  %7 = alloca i32, align 4
  %8 = alloca i32, align 4
  %9 = alloca ptr, align 8
  %10 = alloca ptr, align 8
  store ptr %0, ptr %4, align 8, !tbaa !44
  store ptr %1, ptr %5, align 8, !tbaa !44
  store i32 %2, ptr %6, align 4, !tbaa !11
  call void @llvm.lifetime.start.p0(i64 4, ptr %7) #5
  call void @llvm.lifetime.start.p0(i64 4, ptr %8) #5
  %11 = load i32, ptr %6, align 4, !tbaa !11
  %12 = ashr i32 %11, 1
  store i32 %12, ptr %8, align 4, !tbaa !11
  call void @llvm.lifetime.start.p0(i64 8, ptr %9) #5
  %13 = load ptr, ptr %4, align 8, !tbaa !44
  store ptr %13, ptr %9, align 8, !tbaa !48
  call void @llvm.lifetime.start.p0(i64 8, ptr %10) #5
  %14 = load ptr, ptr %5, align 8, !tbaa !44
  store ptr %14, ptr %10, align 8, !tbaa !48
  %15 = load ptr, ptr %9, align 8, !tbaa !48
  %16 = getelementptr inbounds i16, ptr %15, i64 0
  %17 = load i16, ptr %16, align 2, !tbaa !50
  %18 = sext i16 %17 to i32
  %19 = load ptr, ptr %9, align 8, !tbaa !48
  %20 = load i32, ptr %8, align 4, !tbaa !11
  %21 = sext i32 %20 to i64
  %22 = getelementptr inbounds i16, ptr %19, i64 %21
  %23 = load i16, ptr %22, align 2, !tbaa !50
  %24 = sext i16 %23 to i32
  %25 = load ptr, ptr %9, align 8, !tbaa !48
  %26 = load i32, ptr %8, align 4, !tbaa !11
  %27 = sext i32 %26 to i64
  %28 = getelementptr inbounds i16, ptr %25, i64 %27
  %29 = load i16, ptr %28, align 2, !tbaa !50
  %30 = sext i16 %29 to i32
  %31 = add i32 %24, %30
  %32 = add i32 %31, 2
  %33 = ashr i32 %32, 2
  %34 = sub i32 %18, %33
  %35 = trunc i32 %34 to i16
  %36 = load ptr, ptr %10, align 8, !tbaa !48
  %37 = getelementptr inbounds i16, ptr %36, i64 0
  store i16 %35, ptr %37, align 2, !tbaa !50
  store i32 1, ptr %7, align 4, !tbaa !11
  br label %38

38:                                               ; preds = %75, %3
  %39 = load i32, ptr %7, align 4, !tbaa !11
  %40 = load i32, ptr %8, align 4, !tbaa !11
  %41 = icmp slt i32 %39, %40
  br i1 %41, label %42, label %78

42:                                               ; preds = %38
  %43 = load ptr, ptr %9, align 8, !tbaa !48
  %44 = load i32, ptr %7, align 4, !tbaa !11
  %45 = sext i32 %44 to i64
  %46 = getelementptr inbounds i16, ptr %43, i64 %45
  %47 = load i16, ptr %46, align 2, !tbaa !50
  %48 = sext i16 %47 to i32
  %49 = load ptr, ptr %9, align 8, !tbaa !48
  %50 = load i32, ptr %7, align 4, !tbaa !11
  %51 = load i32, ptr %8, align 4, !tbaa !11
  %52 = add nsw i32 %50, %51
  %53 = sub nsw i32 %52, 1
  %54 = sext i32 %53 to i64
  %55 = getelementptr inbounds i16, ptr %49, i64 %54
  %56 = load i16, ptr %55, align 2, !tbaa !50
  %57 = sext i16 %56 to i32
  %58 = load ptr, ptr %9, align 8, !tbaa !48
  %59 = load i32, ptr %7, align 4, !tbaa !11
  %60 = load i32, ptr %8, align 4, !tbaa !11
  %61 = add nsw i32 %59, %60
  %62 = sext i32 %61 to i64
  %63 = getelementptr inbounds i16, ptr %58, i64 %62
  %64 = load i16, ptr %63, align 2, !tbaa !50
  %65 = sext i16 %64 to i32
  %66 = add i32 %57, %65
  %67 = add i32 %66, 2
  %68 = ashr i32 %67, 2
  %69 = sub i32 %48, %68
  %70 = trunc i32 %69 to i16
  %71 = load ptr, ptr %10, align 8, !tbaa !48
  %72 = load i32, ptr %7, align 4, !tbaa !11
  %73 = sext i32 %72 to i64
  %74 = getelementptr inbounds i16, ptr %71, i64 %73
  store i16 %70, ptr %74, align 2, !tbaa !50
  br label %75

75:                                               ; preds = %42
  %76 = load i32, ptr %7, align 4, !tbaa !11
  %77 = add nsw i32 %76, 1
  store i32 %77, ptr %7, align 4, !tbaa !11
  br label %38, !llvm.loop !54

78:                                               ; preds = %38
  %79 = load ptr, ptr %10, align 8, !tbaa !48
  %80 = getelementptr inbounds i16, ptr %79, i64 0
  %81 = load i16, ptr %80, align 2, !tbaa !50
  %82 = load ptr, ptr %10, align 8, !tbaa !48
  %83 = getelementptr inbounds i16, ptr %82, i64 -1
  store i16 %81, ptr %83, align 2, !tbaa !50
  %84 = load ptr, ptr %10, align 8, !tbaa !48
  %85 = load i32, ptr %8, align 4, !tbaa !11
  %86 = sub nsw i32 %85, 1
  %87 = sext i32 %86 to i64
  %88 = getelementptr inbounds i16, ptr %84, i64 %87
  %89 = load i16, ptr %88, align 2, !tbaa !50
  %90 = load ptr, ptr %10, align 8, !tbaa !48
  %91 = load i32, ptr %8, align 4, !tbaa !11
  %92 = sext i32 %91 to i64
  %93 = getelementptr inbounds i16, ptr %90, i64 %92
  store i16 %89, ptr %93, align 2, !tbaa !50
  %94 = load ptr, ptr %10, align 8, !tbaa !48
  %95 = load i32, ptr %8, align 4, !tbaa !11
  %96 = add nsw i32 %95, 1
  %97 = sext i32 %96 to i64
  %98 = getelementptr inbounds i16, ptr %94, i64 %97
  store i16 %89, ptr %98, align 2, !tbaa !50
  store i32 0, ptr %7, align 4, !tbaa !11
  br label %99

99:                                               ; preds = %170, %78
  %100 = load i32, ptr %7, align 4, !tbaa !11
  %101 = load i32, ptr %8, align 4, !tbaa !11
  %102 = icmp slt i32 %100, %101
  br i1 %102, label %103, label %173

103:                                              ; preds = %99
  %104 = load ptr, ptr %10, align 8, !tbaa !48
  %105 = load i32, ptr %7, align 4, !tbaa !11
  %106 = sext i32 %105 to i64
  %107 = getelementptr inbounds i16, ptr %104, i64 %106
  %108 = load i16, ptr %107, align 2, !tbaa !50
  %109 = sext i16 %108 to i32
  %110 = add i32 %109, 1
  %111 = ashr i32 %110, 1
  %112 = trunc i32 %111 to i16
  %113 = load ptr, ptr %9, align 8, !tbaa !48
  %114 = load i32, ptr %7, align 4, !tbaa !11
  %115 = mul nsw i32 2, %114
  %116 = sext i32 %115 to i64
  %117 = getelementptr inbounds i16, ptr %113, i64 %116
  store i16 %112, ptr %117, align 2, !tbaa !50
  %118 = load ptr, ptr %9, align 8, !tbaa !48
  %119 = load i32, ptr %7, align 4, !tbaa !11
  %120 = load i32, ptr %8, align 4, !tbaa !11
  %121 = add nsw i32 %119, %120
  %122 = sext i32 %121 to i64
  %123 = getelementptr inbounds i16, ptr %118, i64 %122
  %124 = load i16, ptr %123, align 2, !tbaa !50
  %125 = sext i16 %124 to i32
  %126 = load ptr, ptr %10, align 8, !tbaa !48
  %127 = load i32, ptr %7, align 4, !tbaa !11
  %128 = sext i32 %127 to i64
  %129 = getelementptr inbounds i16, ptr %126, i64 %128
  %130 = load i16, ptr %129, align 2, !tbaa !50
  %131 = sext i16 %130 to i32
  %132 = mul i32 9, %131
  %133 = load ptr, ptr %10, align 8, !tbaa !48
  %134 = load i32, ptr %7, align 4, !tbaa !11
  %135 = add nsw i32 %134, 1
  %136 = sext i32 %135 to i64
  %137 = getelementptr inbounds i16, ptr %133, i64 %136
  %138 = load i16, ptr %137, align 2, !tbaa !50
  %139 = sext i16 %138 to i32
  %140 = mul i32 9, %139
  %141 = add i32 %132, %140
  %142 = load ptr, ptr %10, align 8, !tbaa !48
  %143 = load i32, ptr %7, align 4, !tbaa !11
  %144 = add nsw i32 %143, 2
  %145 = sext i32 %144 to i64
  %146 = getelementptr inbounds i16, ptr %142, i64 %145
  %147 = load i16, ptr %146, align 2, !tbaa !50
  %148 = sext i16 %147 to i32
  %149 = sub i32 %141, %148
  %150 = load ptr, ptr %10, align 8, !tbaa !48
  %151 = load i32, ptr %7, align 4, !tbaa !11
  %152 = sub nsw i32 %151, 1
  %153 = sext i32 %152 to i64
  %154 = getelementptr inbounds i16, ptr %150, i64 %153
  %155 = load i16, ptr %154, align 2, !tbaa !50
  %156 = sext i16 %155 to i32
  %157 = sub i32 %149, %156
  %158 = add i32 %157, 8
  %159 = ashr i32 %158, 4
  %160 = add i32 %125, %159
  %161 = add i32 %160, 1
  %162 = ashr i32 %161, 1
  %163 = trunc i32 %162 to i16
  %164 = load ptr, ptr %9, align 8, !tbaa !48
  %165 = load i32, ptr %7, align 4, !tbaa !11
  %166 = mul nsw i32 2, %165
  %167 = add nsw i32 %166, 1
  %168 = sext i32 %167 to i64
  %169 = getelementptr inbounds i16, ptr %164, i64 %168
  store i16 %163, ptr %169, align 2, !tbaa !50
  br label %170

170:                                              ; preds = %103
  %171 = load i32, ptr %7, align 4, !tbaa !11
  %172 = add nsw i32 %171, 1
  store i32 %172, ptr %7, align 4, !tbaa !11
  br label %99, !llvm.loop !55

173:                                              ; preds = %99
  call void @llvm.lifetime.end.p0(i64 8, ptr %10) #5
  call void @llvm.lifetime.end.p0(i64 8, ptr %9) #5
  call void @llvm.lifetime.end.p0(i64 4, ptr %8) #5
  call void @llvm.lifetime.end.p0(i64 4, ptr %7) #5
  ret void
}