; Function Attrs: nofree norecurse nosync nounwind memory(argmem: readwrite) uwtable
define internal void @horizontal_compose_dd97i_8bit(ptr noundef captures(none) %0, ptr noundef captures(none) initializes((0, 2)) %1, i32 noundef %2) #3 {
  %4 = ashr i32 %2, 1
  %5 = load i16, ptr %0, align 2, !tbaa !39
  %6 = sext i32 %4 to i64
  %7 = getelementptr inbounds i16, ptr %0, i64 %6
  %8 = load i16, ptr %7, align 2, !tbaa !39
  %9 = sext i16 %8 to i32
  %10 = shl nsw i32 %9, 1
  %11 = add nsw i32 %10, 2
  %12 = lshr i32 %11, 2
  %13 = trunc i32 %12 to i16
  %14 = sub i16 %5, %13
  store i16 %14, ptr %1, align 2, !tbaa !39
  %15 = icmp sgt i32 %4, 1
  br i1 %15, label %.lr.ph.preheader, label %._crit_edge

.lr.ph.preheader:                                 ; preds = %3
  %16 = zext nneg i32 %4 to i64
  %invariant.gep = getelementptr i16, ptr %0, i64 %16
  br label %.lr.ph

.lr.ph:                                           ; preds = %.lr.ph.preheader, %.lr.ph
  %indvars.iv = phi i64 [ 1, %.lr.ph.preheader ], [ %indvars.iv.next, %.lr.ph ]
  %17 = getelementptr inbounds nuw i16, ptr %0, i64 %indvars.iv
  %18 = load i16, ptr %17, align 2, !tbaa !39
  %gep = getelementptr i16, ptr %invariant.gep, i64 %indvars.iv
  %19 = getelementptr i8, ptr %gep, i64 -2
  %20 = load i16, ptr %19, align 2, !tbaa !39
  %21 = sext i16 %20 to i32
  %22 = load i16, ptr %gep, align 2, !tbaa !39
  %23 = sext i16 %22 to i32
  %24 = add nsw i32 %21, 2
  %25 = add nsw i32 %24, %23
  %26 = lshr i32 %25, 2
  %27 = trunc i32 %26 to i16
  %28 = sub i16 %18, %27
  %29 = getelementptr inbounds nuw i16, ptr %1, i64 %indvars.iv
  store i16 %28, ptr %29, align 2, !tbaa !39
  %indvars.iv.next = add nuw nsw i64 %indvars.iv, 1
  %exitcond.not = icmp eq i64 %indvars.iv.next, %16
  br i1 %exitcond.not, label %._crit_edge.thread, label %.lr.ph, !llvm.loop !43

._crit_edge.thread:                               ; preds = %.lr.ph
  %30 = getelementptr inbounds i8, ptr %1, i64 -2
  store i16 %14, ptr %30, align 2, !tbaa !39
  %31 = getelementptr i16, ptr %1, i64 %6
  %32 = getelementptr i8, ptr %31, i64 -2
  %33 = load i16, ptr %32, align 2, !tbaa !39
  store i16 %33, ptr %31, align 2, !tbaa !39
  %34 = getelementptr i8, ptr %31, i64 2
  store i16 %33, ptr %34, align 2, !tbaa !39
  br label %.lr.ph56.preheader

._crit_edge:                                      ; preds = %3
  %35 = getelementptr inbounds i8, ptr %1, i64 -2
  store i16 %14, ptr %35, align 2, !tbaa !39
  %36 = getelementptr i16, ptr %1, i64 %6
  %37 = getelementptr i8, ptr %36, i64 -2
  %38 = load i16, ptr %37, align 2, !tbaa !39
  store i16 %38, ptr %36, align 2, !tbaa !39
  %39 = getelementptr i8, ptr %36, i64 2
  store i16 %38, ptr %39, align 2, !tbaa !39
  %40 = icmp eq i32 %4, 1
  br i1 %40, label %.lr.ph56.preheader, label %._crit_edge57

.lr.ph56.preheader:                               ; preds = %._crit_edge.thread, %._crit_edge
  %41 = zext nneg i32 %4 to i64
  %invariant.gep64 = getelementptr inbounds nuw i16, ptr %0, i64 %41
  br label %.lr.ph56

.lr.ph56:                                         ; preds = %.lr.ph56.preheader, %.lr.ph56
  %indvars.iv59 = phi i64 [ 0, %.lr.ph56.preheader ], [ %indvars.iv.next60, %.lr.ph56 ]
  %42 = getelementptr inbounds nuw i16, ptr %1, i64 %indvars.iv59
  %43 = load i16, ptr %42, align 2, !tbaa !39
  %44 = sext i16 %43 to i32
  %45 = add nsw i32 %44, 1
  %46 = lshr i32 %45, 1
  %47 = trunc i32 %46 to i16
  %.idx = shl nuw nsw i64 %indvars.iv59, 2
  %48 = getelementptr inbounds nuw i8, ptr %0, i64 %.idx
  store i16 %47, ptr %48, align 2, !tbaa !39
  %gep65 = getelementptr inbounds nuw i16, ptr %invariant.gep64, i64 %indvars.iv59
  %49 = load i16, ptr %gep65, align 2, !tbaa !39
  %50 = sext i16 %49 to i32
  %51 = load i16, ptr %42, align 2, !tbaa !39
  %52 = sext i16 %51 to i32
  %indvars.iv.next60 = add nuw nsw i64 %indvars.iv59, 1
  %53 = getelementptr inbounds nuw i16, ptr %1, i64 %indvars.iv.next60
  %54 = load i16, ptr %53, align 2, !tbaa !39
  %55 = sext i16 %54 to i32
  %56 = add nsw i32 %55, %52
  %57 = mul nsw i32 %56, 9
  %58 = getelementptr inbounds nuw i8, ptr %42, i64 4
  %59 = load i16, ptr %58, align 2, !tbaa !39
  %60 = sext i16 %59 to i32
  %61 = getelementptr i8, ptr %42, i64 -2
  %62 = load i16, ptr %61, align 2, !tbaa !39
  %63 = sext i16 %62 to i32
  %64 = add nsw i32 %60, %63
  %reass.sub = sub nsw i32 %57, %64
  %65 = add nsw i32 %reass.sub, 8
  %66 = lshr i32 %65, 4
  %67 = add nsw i32 %50, 1
  %68 = add nsw i32 %67, %66
  %69 = lshr i32 %68, 1
  %70 = trunc i32 %69 to i16
  %71 = getelementptr inbounds nuw i8, ptr %48, i64 2
  store i16 %70, ptr %71, align 2, !tbaa !39
  %exitcond63.not = icmp eq i64 %indvars.iv.next60, %41
  br i1 %exitcond63.not, label %._crit_edge57, label %.lr.ph56, !llvm.loop !44

._crit_edge57:                                    ; preds = %.lr.ph56, %._crit_edge
  ret void
}